target datalayout = "e-m:e-p270:32:32-p271:32:32-p272:64:64-i64:64-i128:128-f80:128-n8:16:32:64-S128"
target triple = "x86_64-pc-linux-gnu"

%"class.std::function" = type { %"class.std::_Function_base", ptr }
%"class.std::_Function_base" = type { %"union.std::_Any_data", ptr }
%"union.std::_Any_data" = type { %"union.std::_Nocopy_types" }
%"union.std::_Nocopy_types" = type { { i64, i64 } }
%class.anon.184 = type { ptr, ptr }

@_ZN3nix17defaultPathFilterB5cxx11E = external global %"class.std::function", align 8

; Function Attrs: mustprogress uwtable
define internal void @"_ZZN3nix5Store14addToStoreSlowESt17basic_string_viewIcSt11char_traitsIcEERNS_14SourceAccessorERKNS_9CanonPathENS_20ContentAddressMethodENS_13HashAlgorithmERKSt3setINS_9StorePathESt4lessISD_ESaISD_EESt8optionalINS_4HashEEENK3$_1clERNS_4SinkE"(ptr noundef nonnull align 8 dereferenceable(16) %0, ptr noundef nonnull align 8 dereferenceable(8) %1) #5 align 2 {
  %3 = alloca ptr, align 8
  %4 = alloca ptr, align 8
  store ptr %0, ptr %3, align 8
  store ptr %1, ptr %4, align 8
  %5 = load ptr, ptr %3, align 8
  %6 = getelementptr inbounds %class.anon.184, ptr %5, i32 0, i32 0
  %7 = load ptr, ptr %6, align 8
  %8 = getelementptr inbounds %class.anon.184, ptr %5, i32 0, i32 1
  %9 = load ptr, ptr %8, align 8
  %10 = load ptr, ptr %4, align 8
  %11 = load ptr, ptr %7, align 8
  %12 = getelementptr inbounds ptr, ptr %11, i64 8
  %13 = load ptr, ptr %12, align 8
  call void %13(ptr noundef nonnull align 8 dereferenceable(80) %7, ptr noundef nonnull align 8 dereferenceable(32) %9, ptr noundef nonnull align 8 dereferenceable(8) %10, ptr noundef nonnull align 8 dereferenceable(32) @_ZN3nix17defaultPathFilterB5cxx11E)
  ret void
}

; Function Attrs: mustprogress nounwind uwtable
define linkonce_odr noundef ptr @_ZNKSt9_Any_data9_M_accessEv(ptr noundef nonnull align 8 dereferenceable(16) %0) #4 comdat align 2 {
  %2 = alloca ptr, align 8
  store ptr %0, ptr %2, align 8
  %3 = load ptr, ptr %2, align 8
  %4 = getelementptr inbounds [16 x i8], ptr %3, i64 0, i64 0
  ret ptr %4
}

; Function Attrs: mustprogress uwtable
define internal void @"_ZSt13__invoke_implIvRZN3nix5Store14addToStoreSlowESt17basic_string_viewIcSt11char_traitsIcEERNS0_14SourceAccessorERKNS0_9CanonPathENS0_20ContentAddressMethodENS0_13HashAlgorithmERKSt3setINS0_9StorePathESt4lessISE_ESaISE_EESt8optionalINS0_4HashEEE3$_1JRNS0_4SinkEEET_St14__invoke_otherOT0_DpOT1_"(ptr noundef nonnull align 8 dereferenceable(16) %0, ptr noundef nonnull align 8 dereferenceable(8) %1) #5 {
  %3 = alloca ptr, align 8
  %4 = alloca ptr, align 8
  store ptr %0, ptr %3, align 8
  store ptr %1, ptr %4, align 8
  %5 = load ptr, ptr %3, align 8
  %6 = load ptr, ptr %4, align 8
  call void @"_ZZN3nix5Store14addToStoreSlowESt17basic_string_viewIcSt11char_traitsIcEERNS_14SourceAccessorERKNS_9CanonPathENS_20ContentAddressMethodENS_13HashAlgorithmERKSt3setINS_9StorePathESt4lessISD_ESaISD_EESt8optionalINS_4HashEEENK3$_1clERNS_4SinkE"(ptr noundef nonnull align 8 dereferenceable(16) %5, ptr noundef nonnull align 8 dereferenceable(8) %6)
  ret void
}

; Function Attrs: mustprogress nounwind uwtable
define internal noundef nonnull align 8 dereferenceable(16) ptr @"_ZNKSt9_Any_data9_M_accessIZN3nix5Store14addToStoreSlowESt17basic_string_viewIcSt11char_traitsIcEERNS1_14SourceAccessorERKNS1_9CanonPathENS1_20ContentAddressMethodENS1_13HashAlgorithmERKSt3setINS1_9StorePathESt4lessISF_ESaISF_EESt8optionalINS1_4HashEEE3$_1EERKT_v"(ptr noundef nonnull align 8 dereferenceable(16) %0) #4 align 2 {
  %2 = alloca ptr, align 8
  store ptr %0, ptr %2, align 8
  %3 = load ptr, ptr %2, align 8
  %4 = call noundef ptr @_ZNKSt9_Any_data9_M_accessEv(ptr noundef nonnull align 8 dereferenceable(16) %3) #3
  ret ptr %4
}

; Function Attrs: mustprogress uwtable
define internal void @"_ZSt10__invoke_rIvRZN3nix5Store14addToStoreSlowESt17basic_string_viewIcSt11char_traitsIcEERNS0_14SourceAccessorERKNS0_9CanonPathENS0_20ContentAddressMethodENS0_13HashAlgorithmERKSt3setINS0_9StorePathESt4lessISE_ESaISE_EESt8optionalINS0_4HashEEE3$_1JRNS0_4SinkEEENSt9enable_ifIX16is_invocable_r_vIT_T0_DpT1_EEST_E4typeEOSU_DpOSV_"(ptr noundef nonnull align 8 dereferenceable(16) %0, ptr noundef nonnull align 8 dereferenceable(8) %1) #5 {
  %3 = alloca ptr, align 8
  %4 = alloca ptr, align 8
  store ptr %0, ptr %3, align 8
  store ptr %1, ptr %4, align 8
  %5 = load ptr, ptr %3, align 8
  %6 = load ptr, ptr %4, align 8
  call void @"_ZSt13__invoke_implIvRZN3nix5Store14addToStoreSlowESt17basic_string_viewIcSt11char_traitsIcEERNS0_14SourceAccessorERKNS0_9CanonPathENS0_20ContentAddressMethodENS0_13HashAlgorithmERKSt3setINS0_9StorePathESt4lessISE_ESaISE_EESt8optionalINS0_4HashEEE3$_1JRNS0_4SinkEEET_St14__invoke_otherOT0_DpOT1_"(ptr noundef nonnull align 8 dereferenceable(16) %5, ptr noundef nonnull align 8 dereferenceable(8) %6)
  ret void
}

; Function Attrs: mustprogress nounwind uwtable
define internal noundef ptr @"_ZNSt14_Function_base13_Base_managerIZN3nix5Store14addToStoreSlowESt17basic_string_viewIcSt11char_traitsIcEERNS1_14SourceAccessorERKNS1_9CanonPathENS1_20ContentAddressMethodENS1_13HashAlgorithmERKSt3setINS1_9StorePathESt4lessISF_ESaISF_EESt8optionalINS1_4HashEEE3$_1E14_M_get_pointerERKSt9_Any_data"(ptr noundef nonnull align 8 dereferenceable(16) %0) #4 align 2 {
  %2 = alloca ptr, align 8
  %3 = alloca ptr, align 8
  store ptr %0, ptr %2, align 8
  %4 = load ptr, ptr %2, align 8
  %5 = call noundef nonnull align 8 dereferenceable(16) ptr @"_ZNKSt9_Any_data9_M_accessIZN3nix5Store14addToStoreSlowESt17basic_string_viewIcSt11char_traitsIcEERNS1_14SourceAccessorERKNS1_9CanonPathENS1_20ContentAddressMethodENS1_13HashAlgorithmERKSt3setINS1_9StorePathESt4lessISF_ESaISF_EESt8optionalINS1_4HashEEE3$_1EERKT_v"(ptr noundef nonnull align 8 dereferenceable(16) %4) #3
  store ptr %5, ptr %3, align 8
  %6 = load ptr, ptr %3, align 8
  ret ptr %6
}

; Function Attrs: mustprogress uwtable
define internal void @"_ZNSt17_Function_handlerIFvRN3nix4SinkEEZNS0_5Store14addToStoreSlowESt17basic_string_viewIcSt11char_traitsIcEERNS0_14SourceAccessorERKNS0_9CanonPathENS0_20ContentAddressMethodENS0_13HashAlgorithmERKSt3setINS0_9StorePathESt4lessISH_ESaISH_EESt8optionalINS0_4HashEEE3$_1E9_M_invokeERKSt9_Any_dataS2_"(ptr noundef nonnull align 8 dereferenceable(16) %0, ptr noundef nonnull align 8 dereferenceable(8) %1) #5 align 2 {
  %3 = alloca ptr, align 8
  %4 = alloca ptr, align 8
  store ptr %0, ptr %3, align 8
  store ptr %1, ptr %4, align 8
  %5 = load ptr, ptr %3, align 8
  %6 = call noundef ptr @"_ZNSt14_Function_base13_Base_managerIZN3nix5Store14addToStoreSlowESt17basic_string_viewIcSt11char_traitsIcEERNS1_14SourceAccessorERKNS1_9CanonPathENS1_20ContentAddressMethodENS1_13HashAlgorithmERKSt3setINS1_9StorePathESt4lessISF_ESaISF_EESt8optionalINS1_4HashEEE3$_1E14_M_get_pointerERKSt9_Any_data"(ptr noundef nonnull align 8 dereferenceable(16) %5) #3
  %7 = load ptr, ptr %4, align 8
  call void @"_ZSt10__invoke_rIvRZN3nix5Store14addToStoreSlowESt17basic_string_viewIcSt11char_traitsIcEERNS0_14SourceAccessorERKNS0_9CanonPathENS0_20ContentAddressMethodENS0_13HashAlgorithmERKSt3setINS0_9StorePathESt4lessISE_ESaISE_EESt8optionalINS0_4HashEEE3$_1JRNS0_4SinkEEENSt9enable_ifIX16is_invocable_r_vIT_T0_DpT1_EEST_E4typeEOSU_DpOSV_"(ptr noundef nonnull align 8 dereferenceable(16) %6, ptr noundef nonnull align 8 dereferenceable(8) %7)
  ret void
}